
lichtsensor.elf:     file format elf32-avr

Sections:
Idx Name          Size      VMA       LMA       File off  Algn
  0 .data         00000000  00800100  000008c8  0000095c  2**0
                  CONTENTS, ALLOC, LOAD, DATA
  1 .text         000008c8  00000000  00000000  00000094  2**1
                  CONTENTS, ALLOC, LOAD, READONLY, CODE
  2 .bss          000000b6  00800100  00800100  0000095c  2**0
                  ALLOC
  3 .stab         00001338  00000000  00000000  0000095c  2**2
                  CONTENTS, READONLY, DEBUGGING
  4 .stabstr      0000039d  00000000  00000000  00001c94  2**0
                  CONTENTS, READONLY, DEBUGGING
  5 .debug_aranges 000000e0  00000000  00000000  00002038  2**3
                  CONTENTS, READONLY, DEBUGGING
  6 .debug_info   00000ae2  00000000  00000000  00002118  2**0
                  CONTENTS, READONLY, DEBUGGING
  7 .debug_abbrev 000003ab  00000000  00000000  00002bfa  2**0
                  CONTENTS, READONLY, DEBUGGING
  8 .debug_line   000005dd  00000000  00000000  00002fa5  2**0
                  CONTENTS, READONLY, DEBUGGING
  9 .debug_frame  00000248  00000000  00000000  00003584  2**2
                  CONTENTS, READONLY, DEBUGGING
 10 .debug_str    00000352  00000000  00000000  000037cc  2**0
                  CONTENTS, READONLY, DEBUGGING
 11 .debug_loc    0000090a  00000000  00000000  00003b1e  2**0
                  CONTENTS, READONLY, DEBUGGING

Disassembly of section .text:

00000000 <__vectors>:
   0:	0c 94 34 00 	jmp	0x68	; 0x68 <__ctors_end>
   4:	0c 94 51 00 	jmp	0xa2	; 0xa2 <__bad_interrupt>
   8:	0c 94 51 00 	jmp	0xa2	; 0xa2 <__bad_interrupt>
   c:	0c 94 51 00 	jmp	0xa2	; 0xa2 <__bad_interrupt>
  10:	0c 94 51 00 	jmp	0xa2	; 0xa2 <__bad_interrupt>
  14:	0c 94 51 00 	jmp	0xa2	; 0xa2 <__bad_interrupt>
  18:	0c 94 51 00 	jmp	0xa2	; 0xa2 <__bad_interrupt>
  1c:	0c 94 51 00 	jmp	0xa2	; 0xa2 <__bad_interrupt>
  20:	0c 94 51 00 	jmp	0xa2	; 0xa2 <__bad_interrupt>
  24:	0c 94 51 00 	jmp	0xa2	; 0xa2 <__bad_interrupt>
  28:	0c 94 51 00 	jmp	0xa2	; 0xa2 <__bad_interrupt>
  2c:	0c 94 f6 00 	jmp	0x1ec	; 0x1ec <__vector_11>
  30:	0c 94 51 00 	jmp	0xa2	; 0xa2 <__bad_interrupt>
  34:	0c 94 51 00 	jmp	0xa2	; 0xa2 <__bad_interrupt>
  38:	0c 94 51 00 	jmp	0xa2	; 0xa2 <__bad_interrupt>
  3c:	0c 94 51 00 	jmp	0xa2	; 0xa2 <__bad_interrupt>
  40:	0c 94 51 00 	jmp	0xa2	; 0xa2 <__bad_interrupt>
  44:	0c 94 51 00 	jmp	0xa2	; 0xa2 <__bad_interrupt>
  48:	0c 94 51 00 	jmp	0xa2	; 0xa2 <__bad_interrupt>
  4c:	0c 94 51 00 	jmp	0xa2	; 0xa2 <__bad_interrupt>
  50:	0c 94 51 00 	jmp	0xa2	; 0xa2 <__bad_interrupt>
  54:	0c 94 51 00 	jmp	0xa2	; 0xa2 <__bad_interrupt>
  58:	0c 94 51 00 	jmp	0xa2	; 0xa2 <__bad_interrupt>
  5c:	0c 94 51 00 	jmp	0xa2	; 0xa2 <__bad_interrupt>
  60:	0c 94 51 00 	jmp	0xa2	; 0xa2 <__bad_interrupt>
  64:	0c 94 51 00 	jmp	0xa2	; 0xa2 <__bad_interrupt>

00000068 <__ctors_end>:
  68:	11 24       	eor	r1, r1
  6a:	1f be       	out	0x3f, r1	; 63
  6c:	cf ef       	ldi	r28, 0xFF	; 255
  6e:	d8 e0       	ldi	r29, 0x08	; 8
  70:	de bf       	out	0x3e, r29	; 62
  72:	cd bf       	out	0x3d, r28	; 61

00000074 <__do_copy_data>:
  74:	11 e0       	ldi	r17, 0x01	; 1
  76:	a0 e0       	ldi	r26, 0x00	; 0
  78:	b1 e0       	ldi	r27, 0x01	; 1
  7a:	e8 ec       	ldi	r30, 0xC8	; 200
  7c:	f8 e0       	ldi	r31, 0x08	; 8
  7e:	02 c0       	rjmp	.+4      	; 0x84 <__do_copy_data+0x10>
  80:	05 90       	lpm	r0, Z+
  82:	0d 92       	st	X+, r0
  84:	a0 30       	cpi	r26, 0x00	; 0
  86:	b1 07       	cpc	r27, r17
  88:	d9 f7       	brne	.-10     	; 0x80 <__do_copy_data+0xc>

0000008a <__do_clear_bss>:
  8a:	11 e0       	ldi	r17, 0x01	; 1
  8c:	a0 e0       	ldi	r26, 0x00	; 0
  8e:	b1 e0       	ldi	r27, 0x01	; 1
  90:	01 c0       	rjmp	.+2      	; 0x94 <.do_clear_bss_start>

00000092 <.do_clear_bss_loop>:
  92:	1d 92       	st	X+, r1

00000094 <.do_clear_bss_start>:
  94:	a6 3b       	cpi	r26, 0xB6	; 182
  96:	b1 07       	cpc	r27, r17
  98:	e1 f7       	brne	.-8      	; 0x92 <.do_clear_bss_loop>
  9a:	0e 94 3b 03 	call	0x676	; 0x676 <main>
  9e:	0c 94 62 04 	jmp	0x8c4	; 0x8c4 <_exit>

000000a2 <__bad_interrupt>:
  a2:	0c 94 00 00 	jmp	0	; 0x0 <__vectors>

000000a6 <SCH_Add_Task>:
  a6:	0f 93       	push	r16
  a8:	1f 93       	push	r17
  aa:	cf 93       	push	r28
  ac:	df 93       	push	r29
  ae:	ec 01       	movw	r28, r24
  b0:	db 01       	movw	r26, r22
  b2:	8a 01       	movw	r16, r20
  b4:	80 91 02 01 	lds	r24, 0x0102
  b8:	90 91 03 01 	lds	r25, 0x0103
  bc:	00 97       	sbiw	r24, 0x00	; 0
  be:	b1 f0       	breq	.+44     	; 0xec <SCH_Add_Task+0x46>
  c0:	e9 e0       	ldi	r30, 0x09	; 9
  c2:	f1 e0       	ldi	r31, 0x01	; 1
  c4:	21 e0       	ldi	r18, 0x01	; 1
  c6:	30 e0       	ldi	r19, 0x00	; 0
  c8:	42 2f       	mov	r20, r18
  ca:	b9 01       	movw	r22, r18
  cc:	80 81       	ld	r24, Z
  ce:	91 81       	ldd	r25, Z+1	; 0x01
  d0:	00 97       	sbiw	r24, 0x00	; 0
  d2:	41 f0       	breq	.+16     	; 0xe4 <SCH_Add_Task+0x3e>
  d4:	2f 5f       	subi	r18, 0xFF	; 255
  d6:	3f 4f       	sbci	r19, 0xFF	; 255
  d8:	37 96       	adiw	r30, 0x07	; 7
  da:	25 31       	cpi	r18, 0x15	; 21
  dc:	31 05       	cpc	r19, r1
  de:	a1 f7       	brne	.-24     	; 0xc8 <SCH_Add_Task+0x22>
  e0:	84 2f       	mov	r24, r20
  e2:	01 c0       	rjmp	.+2      	; 0xe6 <SCH_Add_Task+0x40>
  e4:	82 2f       	mov	r24, r18
  e6:	84 31       	cpi	r24, 0x14	; 20
  e8:	21 f4       	brne	.+8      	; 0xf2 <SCH_Add_Task+0x4c>
  ea:	17 c0       	rjmp	.+46     	; 0x11a <SCH_Add_Task+0x74>
  ec:	60 e0       	ldi	r22, 0x00	; 0
  ee:	70 e0       	ldi	r23, 0x00	; 0
  f0:	40 e0       	ldi	r20, 0x00	; 0
  f2:	cb 01       	movw	r24, r22
  f4:	88 0f       	add	r24, r24
  f6:	99 1f       	adc	r25, r25
  f8:	88 0f       	add	r24, r24
  fa:	99 1f       	adc	r25, r25
  fc:	88 0f       	add	r24, r24
  fe:	99 1f       	adc	r25, r25
 100:	86 1b       	sub	r24, r22
 102:	97 0b       	sbc	r25, r23
 104:	fc 01       	movw	r30, r24
 106:	ee 5f       	subi	r30, 0xFE	; 254
 108:	fe 4f       	sbci	r31, 0xFE	; 254
 10a:	d1 83       	std	Z+1, r29	; 0x01
 10c:	c0 83       	st	Z, r28
 10e:	b3 83       	std	Z+3, r27	; 0x03
 110:	a2 83       	std	Z+2, r26	; 0x02
 112:	15 83       	std	Z+5, r17	; 0x05
 114:	04 83       	std	Z+4, r16	; 0x04
 116:	16 82       	std	Z+6, r1	; 0x06
 118:	84 2f       	mov	r24, r20
 11a:	df 91       	pop	r29
 11c:	cf 91       	pop	r28
 11e:	1f 91       	pop	r17
 120:	0f 91       	pop	r16
 122:	08 95       	ret

00000124 <SCH_Delete_Task>:
 124:	90 e0       	ldi	r25, 0x00	; 0
 126:	fc 01       	movw	r30, r24
 128:	ee 0f       	add	r30, r30
 12a:	ff 1f       	adc	r31, r31
 12c:	ee 0f       	add	r30, r30
 12e:	ff 1f       	adc	r31, r31
 130:	ee 0f       	add	r30, r30
 132:	ff 1f       	adc	r31, r31
 134:	e8 1b       	sub	r30, r24
 136:	f9 0b       	sbc	r31, r25
 138:	ee 5f       	subi	r30, 0xFE	; 254
 13a:	fe 4f       	sbci	r31, 0xFE	; 254
 13c:	11 82       	std	Z+1, r1	; 0x01
 13e:	10 82       	st	Z, r1
 140:	13 82       	std	Z+3, r1	; 0x03
 142:	12 82       	std	Z+2, r1	; 0x02
 144:	15 82       	std	Z+5, r1	; 0x05
 146:	14 82       	std	Z+4, r1	; 0x04
 148:	16 82       	std	Z+6, r1	; 0x06
 14a:	80 e0       	ldi	r24, 0x00	; 0
 14c:	08 95       	ret

0000014e <SCH_Dispatch_Tasks>:
 14e:	cf 92       	push	r12
 150:	df 92       	push	r13
 152:	ef 92       	push	r14
 154:	ff 92       	push	r15
 156:	1f 93       	push	r17
 158:	cf 93       	push	r28
 15a:	df 93       	push	r29
 15c:	c8 e0       	ldi	r28, 0x08	; 8
 15e:	d1 e0       	ldi	r29, 0x01	; 1
 160:	0f 2e       	mov	r0, r31
 162:	fa ef       	ldi	r31, 0xFA	; 250
 164:	ef 2e       	mov	r14, r31
 166:	ff ef       	ldi	r31, 0xFF	; 255
 168:	ff 2e       	mov	r15, r31
 16a:	f0 2d       	mov	r31, r0
 16c:	ec 0e       	add	r14, r28
 16e:	fd 1e       	adc	r15, r29
 170:	10 e0       	ldi	r17, 0x00	; 0
 172:	88 81       	ld	r24, Y
 174:	88 23       	and	r24, r24
 176:	91 f0       	breq	.+36     	; 0x19c <SCH_Dispatch_Tasks+0x4e>
 178:	d7 01       	movw	r26, r14
 17a:	ed 91       	ld	r30, X+
 17c:	fc 91       	ld	r31, X
 17e:	11 97       	sbiw	r26, 0x01	; 1
 180:	30 97       	sbiw	r30, 0x00	; 0
 182:	61 f0       	breq	.+24     	; 0x19c <SCH_Dispatch_Tasks+0x4e>
 184:	09 95       	icall
 186:	88 81       	ld	r24, Y
 188:	81 50       	subi	r24, 0x01	; 1
 18a:	88 83       	st	Y, r24
 18c:	f7 01       	movw	r30, r14
 18e:	84 81       	ldd	r24, Z+4	; 0x04
 190:	95 81       	ldd	r25, Z+5	; 0x05
 192:	00 97       	sbiw	r24, 0x00	; 0
 194:	19 f4       	brne	.+6      	; 0x19c <SCH_Dispatch_Tasks+0x4e>
 196:	81 2f       	mov	r24, r17
 198:	0e 94 92 00 	call	0x124	; 0x124 <SCH_Delete_Task>
 19c:	1f 5f       	subi	r17, 0xFF	; 255
 19e:	27 96       	adiw	r28, 0x07	; 7
 1a0:	87 e0       	ldi	r24, 0x07	; 7
 1a2:	90 e0       	ldi	r25, 0x00	; 0
 1a4:	e8 0e       	add	r14, r24
 1a6:	f9 1e       	adc	r15, r25
 1a8:	14 31       	cpi	r17, 0x14	; 20
 1aa:	19 f7       	brne	.-58     	; 0x172 <SCH_Dispatch_Tasks+0x24>
 1ac:	df 91       	pop	r29
 1ae:	cf 91       	pop	r28
 1b0:	1f 91       	pop	r17
 1b2:	ff 90       	pop	r15
 1b4:	ef 90       	pop	r14
 1b6:	df 90       	pop	r13
 1b8:	cf 90       	pop	r12
 1ba:	08 95       	ret

000001bc <SCH_Init_T1>:
 1bc:	cf 93       	push	r28
 1be:	c0 e0       	ldi	r28, 0x00	; 0
 1c0:	8c 2f       	mov	r24, r28
 1c2:	0e 94 92 00 	call	0x124	; 0x124 <SCH_Delete_Task>
 1c6:	cf 5f       	subi	r28, 0xFF	; 255
 1c8:	c4 31       	cpi	r28, 0x14	; 20
 1ca:	d1 f7       	brne	.-12     	; 0x1c0 <SCH_Init_T1+0x4>
 1cc:	81 e7       	ldi	r24, 0x71	; 113
 1ce:	92 e0       	ldi	r25, 0x02	; 2
 1d0:	90 93 89 00 	sts	0x0089, r25
 1d4:	80 93 88 00 	sts	0x0088, r24
 1d8:	8c e0       	ldi	r24, 0x0C	; 12
 1da:	80 93 81 00 	sts	0x0081, r24
 1de:	82 e0       	ldi	r24, 0x02	; 2
 1e0:	80 93 6f 00 	sts	0x006F, r24
 1e4:	cf 91       	pop	r28
 1e6:	08 95       	ret

000001e8 <SCH_Start>:
 1e8:	78 94       	sei
 1ea:	08 95       	ret

000001ec <__vector_11>:
 1ec:	1f 92       	push	r1
 1ee:	0f 92       	push	r0
 1f0:	0f b6       	in	r0, 0x3f	; 63
 1f2:	0f 92       	push	r0
 1f4:	11 24       	eor	r1, r1
 1f6:	2f 93       	push	r18
 1f8:	3f 93       	push	r19
 1fa:	8f 93       	push	r24
 1fc:	9f 93       	push	r25
 1fe:	af 93       	push	r26
 200:	bf 93       	push	r27
 202:	cf 93       	push	r28
 204:	df 93       	push	r29
 206:	ef 93       	push	r30
 208:	ff 93       	push	r31
 20a:	e2 e0       	ldi	r30, 0x02	; 2
 20c:	f1 e0       	ldi	r31, 0x01	; 1
 20e:	df 01       	movw	r26, r30
 210:	16 96       	adiw	r26, 0x06	; 6
 212:	2e e8       	ldi	r18, 0x8E	; 142
 214:	31 e0       	ldi	r19, 0x01	; 1
 216:	80 81       	ld	r24, Z
 218:	91 81       	ldd	r25, Z+1	; 0x01
 21a:	00 97       	sbiw	r24, 0x00	; 0
 21c:	91 f0       	breq	.+36     	; 0x242 <__vector_11+0x56>
 21e:	82 81       	ldd	r24, Z+2	; 0x02
 220:	93 81       	ldd	r25, Z+3	; 0x03
 222:	00 97       	sbiw	r24, 0x00	; 0
 224:	59 f4       	brne	.+22     	; 0x23c <__vector_11+0x50>
 226:	8c 91       	ld	r24, X
 228:	8f 5f       	subi	r24, 0xFF	; 255
 22a:	8c 93       	st	X, r24
 22c:	84 81       	ldd	r24, Z+4	; 0x04
 22e:	95 81       	ldd	r25, Z+5	; 0x05
 230:	00 97       	sbiw	r24, 0x00	; 0
 232:	39 f0       	breq	.+14     	; 0x242 <__vector_11+0x56>
 234:	01 97       	sbiw	r24, 0x01	; 1
 236:	93 83       	std	Z+3, r25	; 0x03
 238:	82 83       	std	Z+2, r24	; 0x02
 23a:	03 c0       	rjmp	.+6      	; 0x242 <__vector_11+0x56>
 23c:	01 97       	sbiw	r24, 0x01	; 1
 23e:	93 83       	std	Z+3, r25	; 0x03
 240:	82 83       	std	Z+2, r24	; 0x02
 242:	37 96       	adiw	r30, 0x07	; 7
 244:	17 96       	adiw	r26, 0x07	; 7
 246:	e2 17       	cp	r30, r18
 248:	f3 07       	cpc	r31, r19
 24a:	29 f7       	brne	.-54     	; 0x216 <__vector_11+0x2a>
 24c:	ff 91       	pop	r31
 24e:	ef 91       	pop	r30
 250:	df 91       	pop	r29
 252:	cf 91       	pop	r28
 254:	bf 91       	pop	r27
 256:	af 91       	pop	r26
 258:	9f 91       	pop	r25
 25a:	8f 91       	pop	r24
 25c:	3f 91       	pop	r19
 25e:	2f 91       	pop	r18
 260:	0f 90       	pop	r0
 262:	0f be       	out	0x3f, r0	; 63
 264:	0f 90       	pop	r0
 266:	1f 90       	pop	r1
 268:	18 95       	reti

0000026a <uart_init>:

//Initialize UART.
void uart_init()
{
	 // set the baud rate
	 UBRR0H = 0;
 26a:	10 92 c5 00 	sts	0x00C5, r1
	 UBRR0L = UBBRVAL;
 26e:	83 e3       	ldi	r24, 0x33	; 51
 270:	80 93 c4 00 	sts	0x00C4, r24
	 // disable U2X mode
	 UCSR0A = 0;
 274:	10 92 c0 00 	sts	0x00C0, r1
	 // enable transmitter
	 UCSR0B = _BV(TXEN0);
 278:	88 e0       	ldi	r24, 0x08	; 8
 27a:	80 93 c1 00 	sts	0x00C1, r24
	 // set frame format : asynchronous, 8 data bits, 1 stop bit, no parity
	 UCSR0C = _BV(UCSZ01) | _BV(UCSZ00);
 27e:	86 e0       	ldi	r24, 0x06	; 6
 280:	80 93 c2 00 	sts	0x00C2, r24
}
 284:	08 95       	ret

00000286 <transmit>:
void transmit(uint16_t data)
{
	 // wait for an empty transmit buffer
	 // UDRE is set when the transmit buffer is empty
	 
	 loop_until_bit_is_set(UCSR0A, UDRE0);   
 286:	e0 ec       	ldi	r30, 0xC0	; 192
 288:	f0 e0       	ldi	r31, 0x00	; 0
 28a:	90 81       	ld	r25, Z
 28c:	95 ff       	sbrs	r25, 5
 28e:	fd cf       	rjmp	.-6      	; 0x28a <transmit+0x4>
	 UDR0 = data;
 290:	80 93 c6 00 	sts	0x00C6, r24
}
 294:	08 95       	ret

00000296 <calculateAverageLight>:
}

//This function is used to calculate the average temperature.
void calculateAverageLight()
{
	averageLight /= 3; //calculate average from 3 measured values with intervals of 10 seconds.
 296:	80 91 00 01 	lds	r24, 0x0100
 29a:	90 91 01 01 	lds	r25, 0x0101
 29e:	63 e0       	ldi	r22, 0x03	; 3
 2a0:	70 e0       	ldi	r23, 0x00	; 0
 2a2:	0e 94 3b 04 	call	0x876	; 0x876 <__udivmodhi4>
 2a6:	86 2f       	mov	r24, r22
 2a8:	97 2f       	mov	r25, r23
 2aa:	60 93 00 01 	sts	0x0100, r22
 2ae:	70 93 01 01 	sts	0x0101, r23
	transmit(averageLight); //Send average to screen.
 2b2:	0e 94 43 01 	call	0x286	; 0x286 <transmit>
	averageLight = 0; //reset average light.
 2b6:	10 92 01 01 	sts	0x0101, r1
 2ba:	10 92 00 01 	sts	0x0100, r1
}
 2be:	08 95       	ret

000002c0 <transmit_string>:
	 loop_until_bit_is_set(UCSR0A, UDRE0);   
	 UDR0 = data;
}

// Sends a string of chars (bytes) over UART
void transmit_string(int *c) {
 2c0:	cf 93       	push	r28
 2c2:	df 93       	push	r29
 2c4:	ec 01       	movw	r28, r24
	while (*c != -1) {
 2c6:	88 81       	ld	r24, Y
 2c8:	99 81       	ldd	r25, Y+1	; 0x01
 2ca:	2f ef       	ldi	r18, 0xFF	; 255
 2cc:	8f 3f       	cpi	r24, 0xFF	; 255
 2ce:	92 07       	cpc	r25, r18
 2d0:	49 f0       	breq	.+18     	; 0x2e4 <transmit_string+0x24>
	 loop_until_bit_is_set(UCSR0A, UDRE0);   
	 UDR0 = data;
}

// Sends a string of chars (bytes) over UART
void transmit_string(int *c) {
 2d2:	22 96       	adiw	r28, 0x02	; 2
	while (*c != -1) {
		transmit(*c);
 2d4:	0e 94 43 01 	call	0x286	; 0x286 <transmit>
	 UDR0 = data;
}

// Sends a string of chars (bytes) over UART
void transmit_string(int *c) {
	while (*c != -1) {
 2d8:	89 91       	ld	r24, Y+
 2da:	99 91       	ld	r25, Y+
 2dc:	2f ef       	ldi	r18, 0xFF	; 255
 2de:	8f 3f       	cpi	r24, 0xFF	; 255
 2e0:	92 07       	cpc	r25, r18
 2e2:	c1 f7       	brne	.-16     	; 0x2d4 <transmit_string+0x14>
		transmit(*c);
		c++;
	}
}
 2e4:	df 91       	pop	r29
 2e6:	cf 91       	pop	r28
 2e8:	08 95       	ret

000002ea <receive>:

// Receives a byte from UART
uint8_t receive(uint8_t response) {
	loop_until_bit_is_set(UCSR0A, RXC0);
 2ea:	e0 ec       	ldi	r30, 0xC0	; 192
 2ec:	f0 e0       	ldi	r31, 0x00	; 0
 2ee:	90 81       	ld	r25, Z
 2f0:	99 23       	and	r25, r25
 2f2:	ec f7       	brge	.-6      	; 0x2ee <receive+0x4>
	return response;
}
 2f4:	08 95       	ret

000002f6 <receive_non_blocking>:

// Returns what's received, if nothing is received, return -1
// This is non-blocking
int receive_non_blocking() {
	if (UCSR0A & 1<RXC0) { // is the received data bit set in the UCSR0A register?
 2f6:	80 91 c0 00 	lds	r24, 0x00C0
 2fa:	80 ff       	sbrs	r24, 0
 2fc:	04 c0       	rjmp	.+8      	; 0x306 <receive_non_blocking+0x10>
	return (int) UDR0;
 2fe:	80 91 c6 00 	lds	r24, 0x00C6
 302:	90 e0       	ldi	r25, 0x00	; 0
 304:	08 95       	ret
}
return -1;
 306:	8f ef       	ldi	r24, 0xFF	; 255
 308:	9f ef       	ldi	r25, 0xFF	; 255
}
 30a:	08 95       	ret

0000030c <send_light>:

// Sends the light value via UART
void send_light(int light) {
 30c:	0f 93       	push	r16
 30e:	1f 93       	push	r17
 310:	cf 93       	push	r28
 312:	df 93       	push	r29
 314:	cd b7       	in	r28, 0x3d	; 61
 316:	de b7       	in	r29, 0x3e	; 62
 318:	28 97       	sbiw	r28, 0x08	; 8
 31a:	0f b6       	in	r0, 0x3f	; 63
 31c:	f8 94       	cli
 31e:	de bf       	out	0x3e, r29	; 62
 320:	0f be       	out	0x3f, r0	; 63
 322:	cd bf       	out	0x3d, r28	; 61
 324:	8c 01       	movw	r16, r24
	uint8_t val1;
	uint8_t val2;
	
	if (light < 0) {
 326:	99 23       	and	r25, r25
 328:	cc f0       	brlt	.+50     	; 0x35c <send_light+0x50>
		// if light value > max value able to send
		val1 = 127;
		val2 = 255;
	}
	else {
		val1 = (uint8_t)floor(light / 256);
 32a:	bc 01       	movw	r22, r24
 32c:	99 23       	and	r25, r25
 32e:	14 f4       	brge	.+4      	; 0x334 <send_light+0x28>
 330:	61 50       	subi	r22, 0x01	; 1
 332:	7f 4f       	sbci	r23, 0xFF	; 255
 334:	67 2f       	mov	r22, r23
 336:	77 0f       	add	r23, r23
 338:	77 0b       	sbc	r23, r23
 33a:	88 27       	eor	r24, r24
 33c:	77 fd       	sbrc	r23, 7
 33e:	80 95       	com	r24
 340:	98 2f       	mov	r25, r24
 342:	0e 94 84 03 	call	0x708	; 0x708 <__floatsisf>
 346:	0e 94 bf 03 	call	0x77e	; 0x77e <floor>
 34a:	0e 94 56 03 	call	0x6ac	; 0x6ac <__fixunssfsi>
 34e:	46 2f       	mov	r20, r22
		val2 = (uint8_t)(light % 256);
 350:	c8 01       	movw	r24, r16
 352:	60 e0       	ldi	r22, 0x00	; 0
 354:	71 e0       	ldi	r23, 0x01	; 1
 356:	0e 94 4f 04 	call	0x89e	; 0x89e <__divmodhi4>
 35a:	02 c0       	rjmp	.+4      	; 0x360 <send_light+0x54>
	uint8_t val1;
	uint8_t val2;
	
	if (light < 0) {
		val1 = 0;
		val2 = 0;
 35c:	80 e0       	ldi	r24, 0x00	; 0
void send_light(int light) {
	uint8_t val1;
	uint8_t val2;
	
	if (light < 0) {
		val1 = 0;
 35e:	40 e0       	ldi	r20, 0x00	; 0
		val1 = (uint8_t)floor(light / 256);
		val2 = (uint8_t)(light % 256);
	}

	int buffer[4];
	buffer[0] = 1;
 360:	21 e0       	ldi	r18, 0x01	; 1
 362:	30 e0       	ldi	r19, 0x00	; 0
 364:	3a 83       	std	Y+2, r19	; 0x02
 366:	29 83       	std	Y+1, r18	; 0x01
	buffer[1] = val1;
 368:	4b 83       	std	Y+3, r20	; 0x03
 36a:	1c 82       	std	Y+4, r1	; 0x04
	buffer[2] = val2;
 36c:	8d 83       	std	Y+5, r24	; 0x05
 36e:	1e 82       	std	Y+6, r1	; 0x06
	buffer[3] = -1;
 370:	8f ef       	ldi	r24, 0xFF	; 255
 372:	9f ef       	ldi	r25, 0xFF	; 255
 374:	98 87       	std	Y+8, r25	; 0x08
 376:	8f 83       	std	Y+7, r24	; 0x07
	transmit_string(buffer);
 378:	ce 01       	movw	r24, r28
 37a:	01 96       	adiw	r24, 0x01	; 1
 37c:	0e 94 60 01 	call	0x2c0	; 0x2c0 <transmit_string>
}
 380:	28 96       	adiw	r28, 0x08	; 8
 382:	0f b6       	in	r0, 0x3f	; 63
 384:	f8 94       	cli
 386:	de bf       	out	0x3e, r29	; 62
 388:	0f be       	out	0x3f, r0	; 63
 38a:	cd bf       	out	0x3d, r28	; 61
 38c:	df 91       	pop	r29
 38e:	cf 91       	pop	r28
 390:	1f 91       	pop	r17
 392:	0f 91       	pop	r16
 394:	08 95       	ret

00000396 <send_temperature>:

// Sends the temperature via UART
void send_temperature(int temp) {
 396:	cf 93       	push	r28
 398:	df 93       	push	r29
 39a:	00 d0       	rcall	.+0      	; 0x39c <send_temperature+0x6>
 39c:	00 d0       	rcall	.+0      	; 0x39e <send_temperature+0x8>
 39e:	00 d0       	rcall	.+0      	; 0x3a0 <send_temperature+0xa>
 3a0:	cd b7       	in	r28, 0x3d	; 61
 3a2:	de b7       	in	r29, 0x3e	; 62
	temp += 128;
 3a4:	80 58       	subi	r24, 0x80	; 128
 3a6:	9f 4f       	sbci	r25, 0xFF	; 255
	uint8_t val;
	
	if (temp < 0) {
 3a8:	2a f0       	brmi	.+10     	; 0x3b4 <send_temperature+0x1e>
		val = 0;
	}
	else if (temp > 255) {
 3aa:	8f 3f       	cpi	r24, 0xFF	; 255
 3ac:	91 05       	cpc	r25, r1
 3ae:	29 f0       	breq	.+10     	; 0x3ba <send_temperature+0x24>
 3b0:	24 f0       	brlt	.+8      	; 0x3ba <send_temperature+0x24>
 3b2:	02 c0       	rjmp	.+4      	; 0x3b8 <send_temperature+0x22>
void send_temperature(int temp) {
	temp += 128;
	uint8_t val;
	
	if (temp < 0) {
		val = 0;
 3b4:	80 e0       	ldi	r24, 0x00	; 0
 3b6:	01 c0       	rjmp	.+2      	; 0x3ba <send_temperature+0x24>
	}
	else if (temp > 255) {
		val = 255;
 3b8:	8f ef       	ldi	r24, 0xFF	; 255
	else {
		val = (uint8_t)temp;
	}
	
	int buffer[3];
	buffer[0] = 2;
 3ba:	22 e0       	ldi	r18, 0x02	; 2
 3bc:	30 e0       	ldi	r19, 0x00	; 0
 3be:	3a 83       	std	Y+2, r19	; 0x02
 3c0:	29 83       	std	Y+1, r18	; 0x01
	buffer[1] = val;
 3c2:	8b 83       	std	Y+3, r24	; 0x03
 3c4:	1c 82       	std	Y+4, r1	; 0x04
	buffer[2] = -1;
 3c6:	8f ef       	ldi	r24, 0xFF	; 255
 3c8:	9f ef       	ldi	r25, 0xFF	; 255
 3ca:	9e 83       	std	Y+6, r25	; 0x06
 3cc:	8d 83       	std	Y+5, r24	; 0x05
	transmit_string(buffer);
 3ce:	ce 01       	movw	r24, r28
 3d0:	01 96       	adiw	r24, 0x01	; 1
 3d2:	0e 94 60 01 	call	0x2c0	; 0x2c0 <transmit_string>
}
 3d6:	26 96       	adiw	r28, 0x06	; 6
 3d8:	0f b6       	in	r0, 0x3f	; 63
 3da:	f8 94       	cli
 3dc:	de bf       	out	0x3e, r29	; 62
 3de:	0f be       	out	0x3f, r0	; 63
 3e0:	cd bf       	out	0x3d, r28	; 61
 3e2:	df 91       	pop	r29
 3e4:	cf 91       	pop	r28
 3e6:	08 95       	ret

000003e8 <send_blinds_status>:

// Sends whether the blinds are open or closed
// 0 = closed, 1 = moving, 2 = open
void send_blinds_status(uint8_t status) {
 3e8:	cf 93       	push	r28
 3ea:	df 93       	push	r29
 3ec:	cd b7       	in	r28, 0x3d	; 61
 3ee:	de b7       	in	r29, 0x3e	; 62
 3f0:	28 97       	sbiw	r28, 0x08	; 8
 3f2:	0f b6       	in	r0, 0x3f	; 63
 3f4:	f8 94       	cli
 3f6:	de bf       	out	0x3e, r29	; 62
 3f8:	0f be       	out	0x3f, r0	; 63
 3fa:	cd bf       	out	0x3d, r28	; 61
	if (status > 2) {
		status = 2;
	}
	int buffer[4];
	buffer[0] = 3;
 3fc:	23 e0       	ldi	r18, 0x03	; 3
 3fe:	30 e0       	ldi	r19, 0x00	; 0
 400:	3a 83       	std	Y+2, r19	; 0x02
 402:	29 83       	std	Y+1, r18	; 0x01
	buffer[1] = 0;
 404:	1c 82       	std	Y+4, r1	; 0x04
 406:	1b 82       	std	Y+3, r1	; 0x03
	buffer[2] = status;
 408:	83 30       	cpi	r24, 0x03	; 3
 40a:	08 f0       	brcs	.+2      	; 0x40e <send_blinds_status+0x26>
 40c:	82 e0       	ldi	r24, 0x02	; 2
 40e:	8d 83       	std	Y+5, r24	; 0x05
 410:	1e 82       	std	Y+6, r1	; 0x06
	buffer[3] = -1;
 412:	8f ef       	ldi	r24, 0xFF	; 255
 414:	9f ef       	ldi	r25, 0xFF	; 255
 416:	98 87       	std	Y+8, r25	; 0x08
 418:	8f 83       	std	Y+7, r24	; 0x07
	transmit_string(buffer);
 41a:	ce 01       	movw	r24, r28
 41c:	01 96       	adiw	r24, 0x01	; 1
 41e:	0e 94 60 01 	call	0x2c0	; 0x2c0 <transmit_string>
}
 422:	28 96       	adiw	r28, 0x08	; 8
 424:	0f b6       	in	r0, 0x3f	; 63
 426:	f8 94       	cli
 428:	de bf       	out	0x3e, r29	; 62
 42a:	0f be       	out	0x3f, r0	; 63
 42c:	cd bf       	out	0x3d, r28	; 61
 42e:	df 91       	pop	r29
 430:	cf 91       	pop	r28
 432:	08 95       	ret

00000434 <reset_buffer>:

// Reset the buffer of incoming messages
int receive_buffer[20];
void reset_buffer() {
 434:	ee e8       	ldi	r30, 0x8E	; 142
 436:	f1 e0       	ldi	r31, 0x01	; 1
 438:	2e ed       	ldi	r18, 0xDE	; 222
 43a:	31 e0       	ldi	r19, 0x01	; 1
	for(uint8_t i = 0; i < sizeof(receive_buffer); i++) {
		receive_buffer[i] = -1;
 43c:	8f ef       	ldi	r24, 0xFF	; 255
 43e:	9f ef       	ldi	r25, 0xFF	; 255
 440:	81 93       	st	Z+, r24
 442:	91 93       	st	Z+, r25
}

// Reset the buffer of incoming messages
int receive_buffer[20];
void reset_buffer() {
	for(uint8_t i = 0; i < sizeof(receive_buffer); i++) {
 444:	e2 17       	cp	r30, r18
 446:	f3 07       	cpc	r31, r19
 448:	d9 f7       	brne	.-10     	; 0x440 <reset_buffer+0xc>
		receive_buffer[i] = -1;
	}
}
 44a:	08 95       	ret

0000044c <add_to_buffer>:

// Add a byte to the buffer of incoming messages
void add_to_buffer(uint8_t c) {
	uint8_t i = 0;
	while (receive_buffer[i] != -1) {
 44c:	20 91 8e 01 	lds	r18, 0x018E
 450:	30 91 8f 01 	lds	r19, 0x018F
 454:	9f ef       	ldi	r25, 0xFF	; 255
 456:	2f 3f       	cpi	r18, 0xFF	; 255
 458:	39 07       	cpc	r19, r25
 45a:	91 f0       	breq	.+36     	; 0x480 <add_to_buffer+0x34>
	}
}

// Add a byte to the buffer of incoming messages
void add_to_buffer(uint8_t c) {
	uint8_t i = 0;
 45c:	90 e0       	ldi	r25, 0x00	; 0
	while (receive_buffer[i] != -1) {
 45e:	4e e8       	ldi	r20, 0x8E	; 142
 460:	51 e0       	ldi	r21, 0x01	; 1
		i++;
 462:	9f 5f       	subi	r25, 0xFF	; 255
}

// Add a byte to the buffer of incoming messages
void add_to_buffer(uint8_t c) {
	uint8_t i = 0;
	while (receive_buffer[i] != -1) {
 464:	29 2f       	mov	r18, r25
 466:	30 e0       	ldi	r19, 0x00	; 0
 468:	f9 01       	movw	r30, r18
 46a:	ee 0f       	add	r30, r30
 46c:	ff 1f       	adc	r31, r31
 46e:	e4 0f       	add	r30, r20
 470:	f5 1f       	adc	r31, r21
 472:	60 81       	ld	r22, Z
 474:	71 81       	ldd	r23, Z+1	; 0x01
 476:	ef ef       	ldi	r30, 0xFF	; 255
 478:	6f 3f       	cpi	r22, 0xFF	; 255
 47a:	7e 07       	cpc	r23, r30
 47c:	91 f7       	brne	.-28     	; 0x462 <add_to_buffer+0x16>
 47e:	02 c0       	rjmp	.+4      	; 0x484 <add_to_buffer+0x38>
 480:	20 e0       	ldi	r18, 0x00	; 0
 482:	30 e0       	ldi	r19, 0x00	; 0
		i++;
	}
	receive_buffer[i] = c;
 484:	f9 01       	movw	r30, r18
 486:	ee 0f       	add	r30, r30
 488:	ff 1f       	adc	r31, r31
 48a:	e2 57       	subi	r30, 0x72	; 114
 48c:	fe 4f       	sbci	r31, 0xFE	; 254
 48e:	80 83       	st	Z, r24
 490:	11 82       	std	Z+1, r1	; 0x01
}
 492:	08 95       	ret

00000494 <receiveMessages>:

//Receive messages
// This should be in the scheduler
// TODO edit this to do the stuff it has to do
void receiveMessages() {
	int b = receive_non_blocking();
 494:	0e 94 7b 01 	call	0x2f6	; 0x2f6 <receive_non_blocking>
	while (b != -1) {
 498:	2f ef       	ldi	r18, 0xFF	; 255
 49a:	8f 3f       	cpi	r24, 0xFF	; 255
 49c:	92 07       	cpc	r25, r18
 49e:	41 f0       	breq	.+16     	; 0x4b0 <receiveMessages+0x1c>
		add_to_buffer((uint8_t) b);
 4a0:	0e 94 26 02 	call	0x44c	; 0x44c <add_to_buffer>
		b = receive_non_blocking();
 4a4:	0e 94 7b 01 	call	0x2f6	; 0x2f6 <receive_non_blocking>
//Receive messages
// This should be in the scheduler
// TODO edit this to do the stuff it has to do
void receiveMessages() {
	int b = receive_non_blocking();
	while (b != -1) {
 4a8:	2f ef       	ldi	r18, 0xFF	; 255
 4aa:	8f 3f       	cpi	r24, 0xFF	; 255
 4ac:	92 07       	cpc	r25, r18
 4ae:	c1 f7       	brne	.-16     	; 0x4a0 <receiveMessages+0xc>
		add_to_buffer((uint8_t) b);
		b = receive_non_blocking();
	}
	
	int c = receive_buffer[0];
	int p1 = receive_buffer[1];
 4b0:	40 91 90 01 	lds	r20, 0x0190
 4b4:	50 91 91 01 	lds	r21, 0x0191
	int p2 = receive_buffer[2];
 4b8:	60 91 92 01 	lds	r22, 0x0192
 4bc:	70 91 93 01 	lds	r23, 0x0193
	int p3 = receive_buffer[3];
 4c0:	20 91 94 01 	lds	r18, 0x0194
 4c4:	30 91 95 01 	lds	r19, 0x0195
	
	switch (c) {
 4c8:	80 91 8e 01 	lds	r24, 0x018E
 4cc:	90 91 8f 01 	lds	r25, 0x018F
 4d0:	85 31       	cpi	r24, 0x15	; 21
 4d2:	91 05       	cpc	r25, r1
 4d4:	09 f4       	brne	.+2      	; 0x4d8 <receiveMessages+0x44>
 4d6:	60 c0       	rjmp	.+192    	; 0x598 <receiveMessages+0x104>
 4d8:	86 31       	cpi	r24, 0x16	; 22
 4da:	91 05       	cpc	r25, r1
 4dc:	a4 f4       	brge	.+40     	; 0x506 <receiveMessages+0x72>
 4de:	8a 30       	cpi	r24, 0x0A	; 10
 4e0:	91 05       	cpc	r25, r1
 4e2:	31 f1       	breq	.+76     	; 0x530 <receiveMessages+0x9c>
 4e4:	8b 30       	cpi	r24, 0x0B	; 11
 4e6:	91 05       	cpc	r25, r1
 4e8:	34 f4       	brge	.+12     	; 0x4f6 <receiveMessages+0x62>
 4ea:	2f ef       	ldi	r18, 0xFF	; 255
 4ec:	8f 3f       	cpi	r24, 0xFF	; 255
 4ee:	92 07       	cpc	r25, r18
 4f0:	09 f0       	breq	.+2      	; 0x4f4 <receiveMessages+0x60>
 4f2:	8b c0       	rjmp	.+278    	; 0x60a <receiveMessages+0x176>
 4f4:	08 95       	ret
 4f6:	8b 30       	cpi	r24, 0x0B	; 11
 4f8:	91 05       	cpc	r25, r1
 4fa:	41 f1       	breq	.+80     	; 0x54c <receiveMessages+0xb8>
 4fc:	84 31       	cpi	r24, 0x14	; 20
 4fe:	91 05       	cpc	r25, r1
 500:	09 f0       	breq	.+2      	; 0x504 <receiveMessages+0x70>
 502:	83 c0       	rjmp	.+262    	; 0x60a <receiveMessages+0x176>
 504:	31 c0       	rjmp	.+98     	; 0x568 <receiveMessages+0xd4>
 506:	8f 31       	cpi	r24, 0x1F	; 31
 508:	91 05       	cpc	r25, r1
 50a:	09 f4       	brne	.+2      	; 0x50e <receiveMessages+0x7a>
 50c:	61 c0       	rjmp	.+194    	; 0x5d0 <receiveMessages+0x13c>
 50e:	80 32       	cpi	r24, 0x20	; 32
 510:	91 05       	cpc	r25, r1
 512:	2c f4       	brge	.+10     	; 0x51e <receiveMessages+0x8a>
 514:	8e 31       	cpi	r24, 0x1E	; 30
 516:	91 05       	cpc	r25, r1
 518:	09 f0       	breq	.+2      	; 0x51c <receiveMessages+0x88>
 51a:	77 c0       	rjmp	.+238    	; 0x60a <receiveMessages+0x176>
 51c:	52 c0       	rjmp	.+164    	; 0x5c2 <receiveMessages+0x12e>
 51e:	80 32       	cpi	r24, 0x20	; 32
 520:	91 05       	cpc	r25, r1
 522:	09 f4       	brne	.+2      	; 0x526 <receiveMessages+0x92>
 524:	5c c0       	rjmp	.+184    	; 0x5de <receiveMessages+0x14a>
 526:	81 32       	cpi	r24, 0x21	; 33
 528:	91 05       	cpc	r25, r1
 52a:	09 f0       	breq	.+2      	; 0x52e <receiveMessages+0x9a>
 52c:	6e c0       	rjmp	.+220    	; 0x60a <receiveMessages+0x176>
 52e:	62 c0       	rjmp	.+196    	; 0x5f4 <receiveMessages+0x160>
		case -1:
		break;
		case 10:
		if (p1 != -1) {
 530:	8f ef       	ldi	r24, 0xFF	; 255
 532:	4f 3f       	cpi	r20, 0xFF	; 255
 534:	58 07       	cpc	r21, r24
 536:	09 f4       	brne	.+2      	; 0x53a <receiveMessages+0xa6>
 538:	6a c0       	rjmp	.+212    	; 0x60e <receiveMessages+0x17a>
			if (p1 == 1) {
 53a:	41 30       	cpi	r20, 0x01	; 1
 53c:	51 05       	cpc	r21, r1
 53e:	19 f4       	brne	.+6      	; 0x546 <receiveMessages+0xb2>
				// OPEN THE BLINDS
				// Do stuff here
				
				// End do stuff
				reset_buffer();
 540:	0e 94 1a 02 	call	0x434	; 0x434 <reset_buffer>
 544:	08 95       	ret
			}
			else {
				reset_buffer();
 546:	0e 94 1a 02 	call	0x434	; 0x434 <reset_buffer>
 54a:	08 95       	ret
			}
		}
		break;
		case 11:
		if (p1 != -1) {
 54c:	2f ef       	ldi	r18, 0xFF	; 255
 54e:	4f 3f       	cpi	r20, 0xFF	; 255
 550:	52 07       	cpc	r21, r18
 552:	09 f4       	brne	.+2      	; 0x556 <receiveMessages+0xc2>
 554:	5c c0       	rjmp	.+184    	; 0x60e <receiveMessages+0x17a>
			if (p1 == 1) {
 556:	41 30       	cpi	r20, 0x01	; 1
 558:	51 05       	cpc	r21, r1
 55a:	19 f4       	brne	.+6      	; 0x562 <receiveMessages+0xce>
				// CLOSE THE BLINDS
				// Do stuff here
				
				// End do stuff
				reset_buffer();
 55c:	0e 94 1a 02 	call	0x434	; 0x434 <reset_buffer>
 560:	08 95       	ret
			}
			else {
				reset_buffer();
 562:	0e 94 1a 02 	call	0x434	; 0x434 <reset_buffer>
 566:	08 95       	ret
			}
		}
		break;
		case 20:
		if (p1 != -1 && p2 != -1 && p3 != -1) {
 568:	8f ef       	ldi	r24, 0xFF	; 255
 56a:	4f 3f       	cpi	r20, 0xFF	; 255
 56c:	58 07       	cpc	r21, r24
 56e:	09 f4       	brne	.+2      	; 0x572 <receiveMessages+0xde>
 570:	4e c0       	rjmp	.+156    	; 0x60e <receiveMessages+0x17a>
 572:	8f ef       	ldi	r24, 0xFF	; 255
 574:	6f 3f       	cpi	r22, 0xFF	; 255
 576:	78 07       	cpc	r23, r24
 578:	09 f4       	brne	.+2      	; 0x57c <receiveMessages+0xe8>
 57a:	49 c0       	rjmp	.+146    	; 0x60e <receiveMessages+0x17a>
 57c:	8f ef       	ldi	r24, 0xFF	; 255
 57e:	2f 3f       	cpi	r18, 0xFF	; 255
 580:	38 07       	cpc	r19, r24
 582:	09 f4       	brne	.+2      	; 0x586 <receiveMessages+0xf2>
 584:	44 c0       	rjmp	.+136    	; 0x60e <receiveMessages+0x17a>
			if (p1 == 1) {
 586:	41 30       	cpi	r20, 0x01	; 1
 588:	51 05       	cpc	r21, r1
 58a:	19 f4       	brne	.+6      	; 0x592 <receiveMessages+0xfe>
				int blinds_open_distance = p2 * 256 + p3; // The new blinds open distance
				// Do stuff here
				
				// End do stuff
				reset_buffer();
 58c:	0e 94 1a 02 	call	0x434	; 0x434 <reset_buffer>
 590:	08 95       	ret
			}
			else {
				reset_buffer();
 592:	0e 94 1a 02 	call	0x434	; 0x434 <reset_buffer>
 596:	08 95       	ret
			}
		}
		break;
		case 21:
		if (p1 != -1 && p2 != -1 && p3 != -1) {
 598:	8f ef       	ldi	r24, 0xFF	; 255
 59a:	4f 3f       	cpi	r20, 0xFF	; 255
 59c:	58 07       	cpc	r21, r24
 59e:	b9 f1       	breq	.+110    	; 0x60e <receiveMessages+0x17a>
 5a0:	8f ef       	ldi	r24, 0xFF	; 255
 5a2:	6f 3f       	cpi	r22, 0xFF	; 255
 5a4:	78 07       	cpc	r23, r24
 5a6:	99 f1       	breq	.+102    	; 0x60e <receiveMessages+0x17a>
 5a8:	8f ef       	ldi	r24, 0xFF	; 255
 5aa:	2f 3f       	cpi	r18, 0xFF	; 255
 5ac:	38 07       	cpc	r19, r24
 5ae:	79 f1       	breq	.+94     	; 0x60e <receiveMessages+0x17a>
			if (p1 == 1) {
 5b0:	41 30       	cpi	r20, 0x01	; 1
 5b2:	51 05       	cpc	r21, r1
 5b4:	19 f4       	brne	.+6      	; 0x5bc <receiveMessages+0x128>
				int blinds_closed_distance = p2 * 256 + p3; // The new blinds closed distance
				// Do stuff here
				
				// End do stuff
				reset_buffer();
 5b6:	0e 94 1a 02 	call	0x434	; 0x434 <reset_buffer>
 5ba:	08 95       	ret
			}
			else {
				reset_buffer();
 5bc:	0e 94 1a 02 	call	0x434	; 0x434 <reset_buffer>
 5c0:	08 95       	ret
			}
		}
		break;
		case 30:
		if (p1 != -1) {
 5c2:	2f ef       	ldi	r18, 0xFF	; 255
 5c4:	4f 3f       	cpi	r20, 0xFF	; 255
 5c6:	52 07       	cpc	r21, r18
 5c8:	11 f1       	breq	.+68     	; 0x60e <receiveMessages+0x17a>
			int temperature_to_close = p1 + 128; // The new temperature threshold to close the blinds at
			// Do stuff here
			
			// End do stuff
			reset_buffer();
 5ca:	0e 94 1a 02 	call	0x434	; 0x434 <reset_buffer>
 5ce:	08 95       	ret
		}
		break;
		case 31:
		if (p1 != -1) {
 5d0:	8f ef       	ldi	r24, 0xFF	; 255
 5d2:	4f 3f       	cpi	r20, 0xFF	; 255
 5d4:	58 07       	cpc	r21, r24
 5d6:	d9 f0       	breq	.+54     	; 0x60e <receiveMessages+0x17a>
			int temperature_to_open = p1 + 128; // The new temperature threshold to open the blinds at
			// Do stuff here
			
			// End do stuff
			reset_buffer();
 5d8:	0e 94 1a 02 	call	0x434	; 0x434 <reset_buffer>
 5dc:	08 95       	ret
		}
		break;
		case 32:
		if (p1 != -1 && p2 != -1) {
 5de:	2f ef       	ldi	r18, 0xFF	; 255
 5e0:	4f 3f       	cpi	r20, 0xFF	; 255
 5e2:	52 07       	cpc	r21, r18
 5e4:	a1 f0       	breq	.+40     	; 0x60e <receiveMessages+0x17a>
 5e6:	8f ef       	ldi	r24, 0xFF	; 255
 5e8:	6f 3f       	cpi	r22, 0xFF	; 255
 5ea:	78 07       	cpc	r23, r24
 5ec:	81 f0       	breq	.+32     	; 0x60e <receiveMessages+0x17a>
			int light_to_close = p1 * 256 + p2; // The new light threshold to close the blinds at
			// Do stuff here
			
			// End do stuff
			reset_buffer();
 5ee:	0e 94 1a 02 	call	0x434	; 0x434 <reset_buffer>
 5f2:	08 95       	ret
		}
		break;
		case 33:
		if (p1 != -1 && p2 != -1) {
 5f4:	2f ef       	ldi	r18, 0xFF	; 255
 5f6:	4f 3f       	cpi	r20, 0xFF	; 255
 5f8:	52 07       	cpc	r21, r18
 5fa:	49 f0       	breq	.+18     	; 0x60e <receiveMessages+0x17a>
 5fc:	8f ef       	ldi	r24, 0xFF	; 255
 5fe:	6f 3f       	cpi	r22, 0xFF	; 255
 600:	78 07       	cpc	r23, r24
 602:	29 f0       	breq	.+10     	; 0x60e <receiveMessages+0x17a>
			int light_to_open = p1 * 256 + p2; // The new light threshold to open the blinds at
			// Do stuff here
			
			// End do stuff
			reset_buffer();
 604:	0e 94 1a 02 	call	0x434	; 0x434 <reset_buffer>
 608:	08 95       	ret
		}
		break;
		default:
			reset_buffer();
 60a:	0e 94 1a 02 	call	0x434	; 0x434 <reset_buffer>
 60e:	08 95       	ret

00000610 <setup>:
}

//Set up the ADC registers: ADMUX and ADCSRA. We use ADC channel 1.
void setup()
{
	ADMUX |= (1 << MUX2); //Set ADC channel 1
 610:	ec e7       	ldi	r30, 0x7C	; 124
 612:	f0 e0       	ldi	r31, 0x00	; 0
 614:	80 81       	ld	r24, Z
 616:	84 60       	ori	r24, 0x04	; 4
 618:	80 83       	st	Z, r24
	//ADMUX |= (1 << ADLAR);
	ADMUX |= (1 << REFS0); //set reference voltage 
 61a:	80 81       	ld	r24, Z
 61c:	80 64       	ori	r24, 0x40	; 64
 61e:	80 83       	st	Z, r24
	ADCSRA |= (1 << ADPS2) | (1 << ADPS1) | (1 << ADPS0); //set prescaler
 620:	ea e7       	ldi	r30, 0x7A	; 122
 622:	f0 e0       	ldi	r31, 0x00	; 0
 624:	80 81       	ld	r24, Z
 626:	87 60       	ori	r24, 0x07	; 7
 628:	80 83       	st	Z, r24
	ADCSRA |= (1 << ADEN); //enable the ADC
 62a:	80 81       	ld	r24, Z
 62c:	80 68       	ori	r24, 0x80	; 128
 62e:	80 83       	st	Z, r24
}
 630:	08 95       	ret

00000632 <adc_read>:
{
	// select the corresponding channel 0~7
	// ANDing with ’7? will always keep the value
	// of ‘ch’ between 0 and 7
	ch &= 0b00000111;  // AND operation with 7
	ADMUX = (ADMUX & 0xF8)|ch; // clears the bottom 3 bits before ORing
 632:	ec e7       	ldi	r30, 0x7C	; 124
 634:	f0 e0       	ldi	r31, 0x00	; 0
 636:	90 81       	ld	r25, Z
uint16_t adc_read(uint8_t ch)
{
	// select the corresponding channel 0~7
	// ANDing with ’7? will always keep the value
	// of ‘ch’ between 0 and 7
	ch &= 0b00000111;  // AND operation with 7
 638:	87 70       	andi	r24, 0x07	; 7
	ADMUX = (ADMUX & 0xF8)|ch; // clears the bottom 3 bits before ORing
 63a:	98 7f       	andi	r25, 0xF8	; 248
 63c:	98 2b       	or	r25, r24
 63e:	90 83       	st	Z, r25
	
	// start the conversion
	ADCSRA |= (1<<ADSC);
 640:	ea e7       	ldi	r30, 0x7A	; 122
 642:	f0 e0       	ldi	r31, 0x00	; 0
 644:	80 81       	ld	r24, Z
 646:	80 64       	ori	r24, 0x40	; 64
 648:	80 83       	st	Z, r24
	
	// wait for conversion to complete
	// ADSC becomes ’0? again
	// till then, run loop continuously
	while(ADCSRA & (1<<ADSC));
 64a:	80 81       	ld	r24, Z
 64c:	86 fd       	sbrc	r24, 6
 64e:	fd cf       	rjmp	.-6      	; 0x64a <adc_read+0x18>
	
	return (ADC); 
 650:	80 91 78 00 	lds	r24, 0x0078
 654:	90 91 79 00 	lds	r25, 0x0079
}
 658:	08 95       	ret

0000065a <calculateLight>:

//This function translates the voltage value from the ADC into a light value.
void calculateLight()
{
	uint16_t reading = adc_read(0); //get the 10 bit return value from the ADC.
 65a:	80 e0       	ldi	r24, 0x00	; 0
 65c:	0e 94 19 03 	call	0x632	; 0x632 <adc_read>
	uint8_t light = (uint8_t)reading;
	
	//transmit(light);
	
	averageLight += light;
 660:	20 91 00 01 	lds	r18, 0x0100
 664:	30 91 01 01 	lds	r19, 0x0101
 668:	28 0f       	add	r18, r24
 66a:	31 1d       	adc	r19, r1
 66c:	30 93 01 01 	sts	0x0101, r19
 670:	20 93 00 01 	sts	0x0100, r18
}
 674:	08 95       	ret

00000676 <main>:
	averageLight = 0; //reset average light.
}

int main()                     
{
	setup(); 
 676:	0e 94 08 03 	call	0x610	; 0x610 <setup>
	uart_init();
 67a:	0e 94 35 01 	call	0x26a	; 0x26a <uart_init>
	SCH_Init_T1();
 67e:	0e 94 de 00 	call	0x1bc	; 0x1bc <SCH_Init_T1>
	SCH_Add_Task(calculateLight, 0, 1000); //Read lightintensity every 10 seconds
 682:	8d e2       	ldi	r24, 0x2D	; 45
 684:	93 e0       	ldi	r25, 0x03	; 3
 686:	60 e0       	ldi	r22, 0x00	; 0
 688:	70 e0       	ldi	r23, 0x00	; 0
 68a:	48 ee       	ldi	r20, 0xE8	; 232
 68c:	53 e0       	ldi	r21, 0x03	; 3
 68e:	0e 94 53 00 	call	0xa6	; 0xa6 <SCH_Add_Task>
	SCH_Add_Task(calculateAverageLight, 1000, 3000); //Calculate average every 30 seconds. Delay it by 10 seconds to prevent incomplete average measurements.
 692:	8b e4       	ldi	r24, 0x4B	; 75
 694:	91 e0       	ldi	r25, 0x01	; 1
 696:	68 ee       	ldi	r22, 0xE8	; 232
 698:	73 e0       	ldi	r23, 0x03	; 3
 69a:	48 eb       	ldi	r20, 0xB8	; 184
 69c:	5b e0       	ldi	r21, 0x0B	; 11
 69e:	0e 94 53 00 	call	0xa6	; 0xa6 <SCH_Add_Task>
	SCH_Start();
 6a2:	0e 94 f4 00 	call	0x1e8	; 0x1e8 <SCH_Start>
	while(1)
	{
		SCH_Dispatch_Tasks();
 6a6:	0e 94 a7 00 	call	0x14e	; 0x14e <SCH_Dispatch_Tasks>
 6aa:	fd cf       	rjmp	.-6      	; 0x6a6 <main+0x30>

000006ac <__fixunssfsi>:
 6ac:	ac d0       	rcall	.+344    	; 0x806 <__fp_splitA>
 6ae:	88 f0       	brcs	.+34     	; 0x6d2 <__fixunssfsi+0x26>
 6b0:	9f 57       	subi	r25, 0x7F	; 127
 6b2:	90 f0       	brcs	.+36     	; 0x6d8 <__fixunssfsi+0x2c>
 6b4:	b9 2f       	mov	r27, r25
 6b6:	99 27       	eor	r25, r25
 6b8:	b7 51       	subi	r27, 0x17	; 23
 6ba:	a0 f0       	brcs	.+40     	; 0x6e4 <__fixunssfsi+0x38>
 6bc:	d1 f0       	breq	.+52     	; 0x6f2 <__fixunssfsi+0x46>
 6be:	66 0f       	add	r22, r22
 6c0:	77 1f       	adc	r23, r23
 6c2:	88 1f       	adc	r24, r24
 6c4:	99 1f       	adc	r25, r25
 6c6:	1a f0       	brmi	.+6      	; 0x6ce <__fixunssfsi+0x22>
 6c8:	ba 95       	dec	r27
 6ca:	c9 f7       	brne	.-14     	; 0x6be <__fixunssfsi+0x12>
 6cc:	12 c0       	rjmp	.+36     	; 0x6f2 <__fixunssfsi+0x46>
 6ce:	b1 30       	cpi	r27, 0x01	; 1
 6d0:	81 f0       	breq	.+32     	; 0x6f2 <__fixunssfsi+0x46>
 6d2:	ca d0       	rcall	.+404    	; 0x868 <__fp_zero>
 6d4:	b1 e0       	ldi	r27, 0x01	; 1
 6d6:	08 95       	ret
 6d8:	c7 c0       	rjmp	.+398    	; 0x868 <__fp_zero>
 6da:	67 2f       	mov	r22, r23
 6dc:	78 2f       	mov	r23, r24
 6de:	88 27       	eor	r24, r24
 6e0:	b8 5f       	subi	r27, 0xF8	; 248
 6e2:	39 f0       	breq	.+14     	; 0x6f2 <__fixunssfsi+0x46>
 6e4:	b9 3f       	cpi	r27, 0xF9	; 249
 6e6:	cc f3       	brlt	.-14     	; 0x6da <__fixunssfsi+0x2e>
 6e8:	86 95       	lsr	r24
 6ea:	77 95       	ror	r23
 6ec:	67 95       	ror	r22
 6ee:	b3 95       	inc	r27
 6f0:	d9 f7       	brne	.-10     	; 0x6e8 <__fixunssfsi+0x3c>
 6f2:	3e f4       	brtc	.+14     	; 0x702 <__fixunssfsi+0x56>
 6f4:	90 95       	com	r25
 6f6:	80 95       	com	r24
 6f8:	70 95       	com	r23
 6fa:	61 95       	neg	r22
 6fc:	7f 4f       	sbci	r23, 0xFF	; 255
 6fe:	8f 4f       	sbci	r24, 0xFF	; 255
 700:	9f 4f       	sbci	r25, 0xFF	; 255
 702:	08 95       	ret

00000704 <__floatunsisf>:
 704:	e8 94       	clt
 706:	09 c0       	rjmp	.+18     	; 0x71a <__floatsisf+0x12>

00000708 <__floatsisf>:
 708:	97 fb       	bst	r25, 7
 70a:	3e f4       	brtc	.+14     	; 0x71a <__floatsisf+0x12>
 70c:	90 95       	com	r25
 70e:	80 95       	com	r24
 710:	70 95       	com	r23
 712:	61 95       	neg	r22
 714:	7f 4f       	sbci	r23, 0xFF	; 255
 716:	8f 4f       	sbci	r24, 0xFF	; 255
 718:	9f 4f       	sbci	r25, 0xFF	; 255
 71a:	99 23       	and	r25, r25
 71c:	a9 f0       	breq	.+42     	; 0x748 <__floatsisf+0x40>
 71e:	f9 2f       	mov	r31, r25
 720:	96 e9       	ldi	r25, 0x96	; 150
 722:	bb 27       	eor	r27, r27
 724:	93 95       	inc	r25
 726:	f6 95       	lsr	r31
 728:	87 95       	ror	r24
 72a:	77 95       	ror	r23
 72c:	67 95       	ror	r22
 72e:	b7 95       	ror	r27
 730:	f1 11       	cpse	r31, r1
 732:	f8 cf       	rjmp	.-16     	; 0x724 <__floatsisf+0x1c>
 734:	fa f4       	brpl	.+62     	; 0x774 <__floatsisf+0x6c>
 736:	bb 0f       	add	r27, r27
 738:	11 f4       	brne	.+4      	; 0x73e <__floatsisf+0x36>
 73a:	60 ff       	sbrs	r22, 0
 73c:	1b c0       	rjmp	.+54     	; 0x774 <__floatsisf+0x6c>
 73e:	6f 5f       	subi	r22, 0xFF	; 255
 740:	7f 4f       	sbci	r23, 0xFF	; 255
 742:	8f 4f       	sbci	r24, 0xFF	; 255
 744:	9f 4f       	sbci	r25, 0xFF	; 255
 746:	16 c0       	rjmp	.+44     	; 0x774 <__floatsisf+0x6c>
 748:	88 23       	and	r24, r24
 74a:	11 f0       	breq	.+4      	; 0x750 <__floatsisf+0x48>
 74c:	96 e9       	ldi	r25, 0x96	; 150
 74e:	11 c0       	rjmp	.+34     	; 0x772 <__floatsisf+0x6a>
 750:	77 23       	and	r23, r23
 752:	21 f0       	breq	.+8      	; 0x75c <__floatsisf+0x54>
 754:	9e e8       	ldi	r25, 0x8E	; 142
 756:	87 2f       	mov	r24, r23
 758:	76 2f       	mov	r23, r22
 75a:	05 c0       	rjmp	.+10     	; 0x766 <__floatsisf+0x5e>
 75c:	66 23       	and	r22, r22
 75e:	71 f0       	breq	.+28     	; 0x77c <__floatsisf+0x74>
 760:	96 e8       	ldi	r25, 0x86	; 134
 762:	86 2f       	mov	r24, r22
 764:	70 e0       	ldi	r23, 0x00	; 0
 766:	60 e0       	ldi	r22, 0x00	; 0
 768:	2a f0       	brmi	.+10     	; 0x774 <__floatsisf+0x6c>
 76a:	9a 95       	dec	r25
 76c:	66 0f       	add	r22, r22
 76e:	77 1f       	adc	r23, r23
 770:	88 1f       	adc	r24, r24
 772:	da f7       	brpl	.-10     	; 0x76a <__floatsisf+0x62>
 774:	88 0f       	add	r24, r24
 776:	96 95       	lsr	r25
 778:	87 95       	ror	r24
 77a:	97 f9       	bld	r25, 7
 77c:	08 95       	ret

0000077e <floor>:
 77e:	5d d0       	rcall	.+186    	; 0x83a <__fp_trunc>
 780:	80 f0       	brcs	.+32     	; 0x7a2 <floor+0x24>
 782:	9f 37       	cpi	r25, 0x7F	; 127
 784:	40 f4       	brcc	.+16     	; 0x796 <floor+0x18>
 786:	91 11       	cpse	r25, r1
 788:	0e f0       	brts	.+2      	; 0x78c <floor+0xe>
 78a:	6f c0       	rjmp	.+222    	; 0x86a <__fp_szero>
 78c:	60 e0       	ldi	r22, 0x00	; 0
 78e:	70 e0       	ldi	r23, 0x00	; 0
 790:	80 e8       	ldi	r24, 0x80	; 128
 792:	9f eb       	ldi	r25, 0xBF	; 191
 794:	08 95       	ret
 796:	26 f4       	brtc	.+8      	; 0x7a0 <floor+0x22>
 798:	1b 16       	cp	r1, r27
 79a:	61 1d       	adc	r22, r1
 79c:	71 1d       	adc	r23, r1
 79e:	81 1d       	adc	r24, r1
 7a0:	01 c0       	rjmp	.+2      	; 0x7a4 <__fp_mintl>
 7a2:	1b c0       	rjmp	.+54     	; 0x7da <__fp_mpack>

000007a4 <__fp_mintl>:
 7a4:	88 23       	and	r24, r24
 7a6:	71 f4       	brne	.+28     	; 0x7c4 <__fp_mintl+0x20>
 7a8:	77 23       	and	r23, r23
 7aa:	21 f0       	breq	.+8      	; 0x7b4 <__fp_mintl+0x10>
 7ac:	98 50       	subi	r25, 0x08	; 8
 7ae:	87 2b       	or	r24, r23
 7b0:	76 2f       	mov	r23, r22
 7b2:	07 c0       	rjmp	.+14     	; 0x7c2 <__fp_mintl+0x1e>
 7b4:	66 23       	and	r22, r22
 7b6:	11 f4       	brne	.+4      	; 0x7bc <__fp_mintl+0x18>
 7b8:	99 27       	eor	r25, r25
 7ba:	0d c0       	rjmp	.+26     	; 0x7d6 <__fp_mintl+0x32>
 7bc:	90 51       	subi	r25, 0x10	; 16
 7be:	86 2b       	or	r24, r22
 7c0:	70 e0       	ldi	r23, 0x00	; 0
 7c2:	60 e0       	ldi	r22, 0x00	; 0
 7c4:	2a f0       	brmi	.+10     	; 0x7d0 <__fp_mintl+0x2c>
 7c6:	9a 95       	dec	r25
 7c8:	66 0f       	add	r22, r22
 7ca:	77 1f       	adc	r23, r23
 7cc:	88 1f       	adc	r24, r24
 7ce:	da f7       	brpl	.-10     	; 0x7c6 <__fp_mintl+0x22>
 7d0:	88 0f       	add	r24, r24
 7d2:	96 95       	lsr	r25
 7d4:	87 95       	ror	r24
 7d6:	97 f9       	bld	r25, 7
 7d8:	08 95       	ret

000007da <__fp_mpack>:
 7da:	9f 3f       	cpi	r25, 0xFF	; 255
 7dc:	31 f0       	breq	.+12     	; 0x7ea <__fp_mpack_finite+0xc>

000007de <__fp_mpack_finite>:
 7de:	91 50       	subi	r25, 0x01	; 1
 7e0:	20 f4       	brcc	.+8      	; 0x7ea <__fp_mpack_finite+0xc>
 7e2:	87 95       	ror	r24
 7e4:	77 95       	ror	r23
 7e6:	67 95       	ror	r22
 7e8:	b7 95       	ror	r27
 7ea:	88 0f       	add	r24, r24
 7ec:	91 1d       	adc	r25, r1
 7ee:	96 95       	lsr	r25
 7f0:	87 95       	ror	r24
 7f2:	97 f9       	bld	r25, 7
 7f4:	08 95       	ret

000007f6 <__fp_split3>:
 7f6:	57 fd       	sbrc	r21, 7
 7f8:	90 58       	subi	r25, 0x80	; 128
 7fa:	44 0f       	add	r20, r20
 7fc:	55 1f       	adc	r21, r21
 7fe:	59 f0       	breq	.+22     	; 0x816 <__fp_splitA+0x10>
 800:	5f 3f       	cpi	r21, 0xFF	; 255
 802:	71 f0       	breq	.+28     	; 0x820 <__fp_splitA+0x1a>
 804:	47 95       	ror	r20

00000806 <__fp_splitA>:
 806:	88 0f       	add	r24, r24
 808:	97 fb       	bst	r25, 7
 80a:	99 1f       	adc	r25, r25
 80c:	61 f0       	breq	.+24     	; 0x826 <__fp_splitA+0x20>
 80e:	9f 3f       	cpi	r25, 0xFF	; 255
 810:	79 f0       	breq	.+30     	; 0x830 <__fp_splitA+0x2a>
 812:	87 95       	ror	r24
 814:	08 95       	ret
 816:	12 16       	cp	r1, r18
 818:	13 06       	cpc	r1, r19
 81a:	14 06       	cpc	r1, r20
 81c:	55 1f       	adc	r21, r21
 81e:	f2 cf       	rjmp	.-28     	; 0x804 <__fp_split3+0xe>
 820:	46 95       	lsr	r20
 822:	f1 df       	rcall	.-30     	; 0x806 <__fp_splitA>
 824:	08 c0       	rjmp	.+16     	; 0x836 <__fp_splitA+0x30>
 826:	16 16       	cp	r1, r22
 828:	17 06       	cpc	r1, r23
 82a:	18 06       	cpc	r1, r24
 82c:	99 1f       	adc	r25, r25
 82e:	f1 cf       	rjmp	.-30     	; 0x812 <__fp_splitA+0xc>
 830:	86 95       	lsr	r24
 832:	71 05       	cpc	r23, r1
 834:	61 05       	cpc	r22, r1
 836:	08 94       	sec
 838:	08 95       	ret

0000083a <__fp_trunc>:
 83a:	e5 df       	rcall	.-54     	; 0x806 <__fp_splitA>
 83c:	a0 f0       	brcs	.+40     	; 0x866 <__fp_trunc+0x2c>
 83e:	be e7       	ldi	r27, 0x7E	; 126
 840:	b9 17       	cp	r27, r25
 842:	88 f4       	brcc	.+34     	; 0x866 <__fp_trunc+0x2c>
 844:	bb 27       	eor	r27, r27
 846:	9f 38       	cpi	r25, 0x8F	; 143
 848:	60 f4       	brcc	.+24     	; 0x862 <__fp_trunc+0x28>
 84a:	16 16       	cp	r1, r22
 84c:	b1 1d       	adc	r27, r1
 84e:	67 2f       	mov	r22, r23
 850:	78 2f       	mov	r23, r24
 852:	88 27       	eor	r24, r24
 854:	98 5f       	subi	r25, 0xF8	; 248
 856:	f7 cf       	rjmp	.-18     	; 0x846 <__fp_trunc+0xc>
 858:	86 95       	lsr	r24
 85a:	77 95       	ror	r23
 85c:	67 95       	ror	r22
 85e:	b1 1d       	adc	r27, r1
 860:	93 95       	inc	r25
 862:	96 39       	cpi	r25, 0x96	; 150
 864:	c8 f3       	brcs	.-14     	; 0x858 <__fp_trunc+0x1e>
 866:	08 95       	ret

00000868 <__fp_zero>:
 868:	e8 94       	clt

0000086a <__fp_szero>:
 86a:	bb 27       	eor	r27, r27
 86c:	66 27       	eor	r22, r22
 86e:	77 27       	eor	r23, r23
 870:	cb 01       	movw	r24, r22
 872:	97 f9       	bld	r25, 7
 874:	08 95       	ret

00000876 <__udivmodhi4>:
 876:	aa 1b       	sub	r26, r26
 878:	bb 1b       	sub	r27, r27
 87a:	51 e1       	ldi	r21, 0x11	; 17
 87c:	07 c0       	rjmp	.+14     	; 0x88c <__udivmodhi4_ep>

0000087e <__udivmodhi4_loop>:
 87e:	aa 1f       	adc	r26, r26
 880:	bb 1f       	adc	r27, r27
 882:	a6 17       	cp	r26, r22
 884:	b7 07       	cpc	r27, r23
 886:	10 f0       	brcs	.+4      	; 0x88c <__udivmodhi4_ep>
 888:	a6 1b       	sub	r26, r22
 88a:	b7 0b       	sbc	r27, r23

0000088c <__udivmodhi4_ep>:
 88c:	88 1f       	adc	r24, r24
 88e:	99 1f       	adc	r25, r25
 890:	5a 95       	dec	r21
 892:	a9 f7       	brne	.-22     	; 0x87e <__udivmodhi4_loop>
 894:	80 95       	com	r24
 896:	90 95       	com	r25
 898:	bc 01       	movw	r22, r24
 89a:	cd 01       	movw	r24, r26
 89c:	08 95       	ret

0000089e <__divmodhi4>:
 89e:	97 fb       	bst	r25, 7
 8a0:	09 2e       	mov	r0, r25
 8a2:	07 26       	eor	r0, r23
 8a4:	0a d0       	rcall	.+20     	; 0x8ba <__divmodhi4_neg1>
 8a6:	77 fd       	sbrc	r23, 7
 8a8:	04 d0       	rcall	.+8      	; 0x8b2 <__divmodhi4_neg2>
 8aa:	e5 df       	rcall	.-54     	; 0x876 <__udivmodhi4>
 8ac:	06 d0       	rcall	.+12     	; 0x8ba <__divmodhi4_neg1>
 8ae:	00 20       	and	r0, r0
 8b0:	1a f4       	brpl	.+6      	; 0x8b8 <__divmodhi4_exit>

000008b2 <__divmodhi4_neg2>:
 8b2:	70 95       	com	r23
 8b4:	61 95       	neg	r22
 8b6:	7f 4f       	sbci	r23, 0xFF	; 255

000008b8 <__divmodhi4_exit>:
 8b8:	08 95       	ret

000008ba <__divmodhi4_neg1>:
 8ba:	f6 f7       	brtc	.-4      	; 0x8b8 <__divmodhi4_exit>
 8bc:	90 95       	com	r25
 8be:	81 95       	neg	r24
 8c0:	9f 4f       	sbci	r25, 0xFF	; 255
 8c2:	08 95       	ret

000008c4 <_exit>:
 8c4:	f8 94       	cli

000008c6 <__stop_program>:
 8c6:	ff cf       	rjmp	.-2      	; 0x8c6 <__stop_program>
